target datalayout = "e-m:e-p270:32:32-p271:32:32-p272:64:64-i64:64-i128:128-f80:128-n8:16:32:64-S128"
target triple = "x86_64-pc-linux-gnu"

%struct.tvbuff = type { ptr, ptr, i8, i32, ptr, ptr, i32, i32, i32, i32 }

@.str = private unnamed_addr constant [29 x i8] c"%s:%u: failed assertion \22%s\22\00", align 1
@.str.1 = private unnamed_addr constant [14 x i8] c"epan/tvbuff.c\00", align 1
@.str.5 = private unnamed_addr constant [24 x i8] c"tvb && tvb->initialized\00", align 1

; Function Attrs: inlinehint nounwind null_pointer_is_valid sspstrong uwtable
define internal zeroext i16 @pntoh16(ptr noundef %0) #7 {
  %2 = alloca ptr, align 8
  store ptr %0, ptr %2, align 8
  %3 = load ptr, ptr %2, align 8
  %4 = getelementptr i8, ptr %3, i64 0
  %5 = load i8, ptr %4, align 1
  %6 = zext i8 %5 to i16
  %7 = zext i16 %6 to i32
  %8 = shl i32 %7, 8
  %9 = load ptr, ptr %2, align 8
  %10 = getelementptr i8, ptr %9, i64 1
  %11 = load i8, ptr %10, align 1
  %12 = zext i8 %11 to i16
  %13 = zext i16 %12 to i32
  %14 = shl i32 %13, 0
  %15 = or i32 %8, %14
  %16 = trunc i32 %15 to i16
  ret i16 %16
}

; Function Attrs: null_pointer_is_valid sspstrong uwtable
define zeroext i16 @tvb_get_ntohs(ptr noundef %0, i32 noundef %1) #0 {
  %3 = alloca ptr, align 8
  %4 = alloca i32, align 4
  %5 = alloca ptr, align 8
  store ptr %0, ptr %3, align 8
  store i32 %1, ptr %4, align 4
  call void @llvm.lifetime.start.p0(i64 8, ptr %5) #16
  %6 = load ptr, ptr %3, align 8
  %7 = load i32, ptr %4, align 4
  %8 = call ptr @fast_ensure_contiguous(ptr noundef %6, i32 noundef %7, i32 noundef 2)
  store ptr %8, ptr %5, align 8
  %9 = load ptr, ptr %5, align 8
  %10 = call zeroext i16 @pntoh16(ptr noundef %9)
  call void @llvm.lifetime.end.p0(i64 8, ptr %5) #16
  ret i16 %10
}

; Function Attrs: null_pointer_is_valid sspstrong uwtable
define i32 @tvb_unicode_strsize(ptr noundef %0, i32 noundef %1) #0 {
  %3 = alloca ptr, align 8
  %4 = alloca i32, align 4
  %5 = alloca i32, align 4
  %6 = alloca i16, align 2
  store ptr %0, ptr %3, align 8
  store i32 %1, ptr %4, align 4
  call void @llvm.lifetime.start.p0(i64 4, ptr %5) #16
  store i32 0, ptr %5, align 4
  call void @llvm.lifetime.start.p0(i64 2, ptr %6) #16
  %7 = load ptr, ptr %3, align 8
  %8 = icmp ne ptr %7, null
  br i1 %8, label %9, label %15

9:                                                ; preds = %2
  %10 = load ptr, ptr %3, align 8
  %11 = getelementptr inbounds nuw %struct.tvbuff, ptr %10, i32 0, i32 2
  %12 = load i8, ptr %11, align 8, !range !9, !noundef !10
  %13 = trunc i8 %12 to i1
  br i1 %13, label %14, label %15

14:                                               ; preds = %9
  br label %17

15:                                               ; preds = %9, %2
  call void (ptr, ...) @proto_report_dissector_bug(ptr noundef @.str, ptr noundef @.str.1, i32 noundef 2652, ptr noundef @.str.5) #18
  unreachable

16:                                               ; No predecessors!
  br label %17

17:                                               ; preds = %16, %14
  br label %18

18:                                               ; preds = %26, %17
  %19 = load ptr, ptr %3, align 8
  %20 = load i32, ptr %4, align 4
  %21 = load i32, ptr %5, align 4
  %22 = add i32 %20, %21
  %23 = call zeroext i16 @tvb_get_ntohs(ptr noundef %19, i32 noundef %22)
  store i16 %23, ptr %6, align 2
  %24 = load i32, ptr %5, align 4
  %25 = add i32 %24, 2
  store i32 %25, ptr %5, align 4
  br label %26

26:                                               ; preds = %18
  %27 = load i16, ptr %6, align 2
  %28 = zext i16 %27 to i32
  %29 = icmp ne i32 %28, 0
  br i1 %29, label %18, label %30, !llvm.loop !23

30:                                               ; preds = %26
  %31 = load i32, ptr %5, align 4
  call void @llvm.lifetime.end.p0(i64 2, ptr %6) #16
  call void @llvm.lifetime.end.p0(i64 4, ptr %5) #16
  ret i32 %31
}