; Function Attrs: null_pointer_is_valid sspstrong uwtable
define i32 @tvb_unicode_strsize(ptr noundef %0, i32 noundef %1) local_unnamed_addr #0 {
  %.not = icmp eq ptr %0, null
  br i1 %.not, label %7, label %3

3:                                                ; preds = %2
  %4 = getelementptr inbounds nuw i8, ptr %0, i64 16
  %5 = load i8, ptr %4, align 8, !range !9, !noundef !10
  %6 = trunc nuw i8 %5 to i1
  br i1 %6, label %.preheader, label %7

7:                                                ; preds = %3, %2
  tail call void (ptr, ...) @proto_report_dissector_bug(ptr noundef nonnull @.str, ptr noundef nonnull @.str.1, i32 noundef 2652, ptr noundef nonnull @.str.5) #18
  unreachable

.preheader:                                       ; preds = %3, %.preheader
  %.0 = phi i32 [ %15, %.preheader ], [ 0, %3 ]
  %8 = add i32 %.0, %1
  %9 = tail call fastcc ptr @fast_ensure_contiguous(ptr noundef nonnull %0, i32 noundef %8, i32 noundef 2)
  %.val.i = load i8, ptr %9, align 1
  %10 = getelementptr i8, ptr %9, i64 1
  %.val2.i = load i8, ptr %10, align 1
  %11 = zext i8 %.val.i to i16
  %12 = shl nuw i16 %11, 8
  %13 = zext i8 %.val2.i to i16
  %14 = or disjoint i16 %12, %13
  %15 = add i32 %.0, 2
  %.not8 = icmp eq i16 %14, 0
  br i1 %.not8, label %16, label %.preheader, !llvm.loop !25

16:                                               ; preds = %.preheader
  ret i32 %15
}